; Function Attrs: mustprogress uwtable
define dso_local void @_ZN4pbrt20RGBUnboundedSpectrumC2ERKNS_13RGBColorSpaceENS_3RGBE(ptr noundef nonnull writeonly align 4 captures(none) dereferenceable(16) %0, ptr noundef nonnull align 8 dereferenceable(152) %1, <2 x float> %2, float %3) unnamed_addr #2 align 2 {
  %5 = alloca [3 x float], align 4
  call void @llvm.lifetime.start.p0(i64 12, ptr nonnull %5) #29
  %.sroa.015.0.vec.extract = extractelement <2 x float> %2, i64 0
  store float %.sroa.015.0.vec.extract, ptr %5, align 4, !tbaa !16
  %.ptr19 = getelementptr inbounds nuw i8, ptr %5, i64 4
  %.sroa.015.4.vec.extract = extractelement <2 x float> %2, i64 1
  store float %.sroa.015.4.vec.extract, ptr %.ptr19, align 4, !tbaa !16
  %6 = getelementptr inbounds nuw i8, ptr %5, i64 8
  store float %3, ptr %6, align 4, !tbaa !16
  br label %.lr.ph.i.i

.lr.ph.i.i:                                       ; preds = %.lr.ph.i.i, %4
  %7 = phi float [ %10, %.lr.ph.i.i ], [ %.sroa.015.0.vec.extract, %4 ]
  %.idx = phi i64 [ %.add, %.lr.ph.i.i ], [ 4, %4 ]
  %.018.i.i = phi ptr [ %spec.select.i.i, %.lr.ph.i.i ], [ %5, %4 ]
  %.ptr = getelementptr inbounds nuw i8, ptr %5, i64 %.idx
  %8 = load float, ptr %.ptr, align 4, !tbaa !16
  %9 = fcmp olt float %7, %8
  %10 = select i1 %9, float %8, float %7
  %spec.select.i.i = select i1 %9, ptr %.ptr, ptr %.018.i.i
  %.add = add nuw nsw i64 %.idx, 4
  %.not.i.i = icmp eq i64 %.add, 12
  br i1 %.not.i.i, label %_ZSt3maxIfET_St16initializer_listIS0_E.exit, label %.lr.ph.i.i, !llvm.loop !66

_ZSt3maxIfET_St16initializer_listIS0_E.exit:      ; preds = %.lr.ph.i.i
  %11 = load float, ptr %spec.select.i.i, align 4, !tbaa !16
  call void @llvm.lifetime.end.p0(i64 12, ptr nonnull %5) #29
  %12 = fmul float %11, 2.000000e+00
  store float %12, ptr %0, align 4, !tbaa !159
  %13 = fcmp une float %12, 0.000000e+00
  %14 = fdiv float %.sroa.015.0.vec.extract, %12
  %.sroa.0.0.vec.insert.i = insertelement <2 x float> poison, float %14, i64 0
  %15 = fdiv float %.sroa.015.4.vec.extract, %12
  %.sroa.0.4.vec.insert.i = insertelement <2 x float> %.sroa.0.0.vec.insert.i, float %15, i64 1
  %16 = fdiv float %3, %12
  %.sroa.4.0 = select i1 %13, float %16, float 0.000000e+00
  %.sroa.0.0 = select i1 %13, <2 x float> %.sroa.0.4.vec.insert.i, <2 x float> zeroinitializer
  %17 = tail call { <2 x float>, float } @_ZNK4pbrt13RGBColorSpace11ToRGBCoeffsENS_3RGBE(ptr noundef nonnull align 8 dereferenceable(152) %1, <2 x float> %.sroa.0.0, float %.sroa.4.0)
  %.fca.0.extract = extractvalue { <2 x float>, float } %17, 0
  %.fca.1.extract = extractvalue { <2 x float>, float } %17, 1
  %18 = getelementptr inbounds nuw i8, ptr %0, i64 4
  store <2 x float> %.fca.0.extract, ptr %18, align 4
  %.sroa.4.0..sroa_idx = getelementptr inbounds nuw i8, ptr %0, i64 12
  store float %.fca.1.extract, ptr %.sroa.4.0..sroa_idx, align 4, !tbaa !16
  ret void
}